ccopy_reg
_reconstructor
p0
(cpandas.core.frame
DataFrame
p1
c__builtin__
object
p2
Ntp3
Rp4
(dp5
S'_metadata'
p6
(lp7
sS'_typ'
p8
S'dataframe'
p9
sS'_data'
p10
g0
(cpandas.core.internals
BlockManager
p11
g2
Ntp12
Rp13
((lp14
cpandas.core.index
_new_Index
p15
(cpandas.core.index
Index
p16
(dp17
S'data'
p18
cnumpy.core.multiarray
_reconstruct
p19
(cnumpy
ndarray
p20
(I0
tp21
S'b'
p22
tp23
Rp24
(I1
(I4
tp25
cnumpy
dtype
p26
(S'O8'
p27
I0
I1
tp28
Rp29
(I3
S'|'
p30
NNNI-1
I-1
I63
tp31
bI00
(lp32
S'subranking'
p33
aS'url'
p34
aS'weight'
p35
aS'attributes'
p36
atp37
bsS'name'
p38
Nstp39
Rp40
ag15
(cpandas.core.index
Int64Index
p41
(dp42
g18
g19
(g20
(I0
tp43
g22
tp44
Rp45
(I1
(I9
tp46
g26
(S'i8'
p47
I0
I1
tp48
Rp49
(I3
S'<'
p50
NNNI-1
I-1
I0
tp51
bI00
S'\x00\x00\x00\x00\x00\x00\x00\x00\x01\x00\x00\x00\x00\x00\x00\x00\x02\x00\x00\x00\x00\x00\x00\x00\x03\x00\x00\x00\x00\x00\x00\x00\x04\x00\x00\x00\x00\x00\x00\x00\x05\x00\x00\x00\x00\x00\x00\x00\x06\x00\x00\x00\x00\x00\x00\x00\x07\x00\x00\x00\x00\x00\x00\x00\x08\x00\x00\x00\x00\x00\x00\x00'
p52
tp53
bsg38
Nstp54
Rp55
a(lp56
g19
(g20
(I0
tp57
g22
tp58
Rp59
(I1
(I1
I9
tp60
g26
(S'f8'
p61
I0
I1
tp62
Rp63
(I3
S'<'
p64
NNNI-1
I-1
I0
tp65
bI00
S"\xecQ\xb8\x1e\x85\xeb\t@33333\xf30@\\\x8f\xc2\xf5(\xdc)@\xecQ\xb8\x1e\x85k1@\\\x8f\xc2\xf5(\\\t@{\x14\xaeG\xe1\xfa'@\x00\x00\x00\x00\x00\x00$@\xaeG\xe1z\x14\xae\x1d@\xa4p=\n\xd7\xe30@"
p66
tp67
bag19
(g20
(I0
tp68
g22
tp69
Rp70
(I1
(I3
I9
tp71
g29
I00
(lp72
VAdventure
p73
aVCitizenship
p74
aVCultural Influence
p75
aVEntrepreneurship
p76
aVHeritage
p77
aVOpen for Business
p78
aVMovers
p79
aVPower
p80
aVQuality of Life
p81
aV/news/best-countries/adventure-rankings
p82
aV/news/best-countries/citizenship-rankings
p83
aV/news/best-countries/influence-rankings
p84
aV/news/best-countries/entrepreneurship-rankings
p85
aV/news/best-countries/heritage-rankings
p86
aV/news/best-countries/open-for-business-rankings
p87
aV/news/best-countries/movers-rankings
p88
aV/news/best-countries/power-rankings
p89
aV/news/best-countries/quality-of-life-rankings
p90
a(lp91
(lp92
Vfriendly
p93
aVfun
p94
aVpleasant climate
p95
aVscenic
p96
aVsexy
p97
aaa(lp98
(lp99
Vares about human rights
p100
aVcares about the environment
p101
aVgender equality
p102
aVprogressive
p103
aVreligious freedom
p104
aVrespects property rights
p105
aVtrustworthy
p106
aVwell-distributed political power
p107
aaa(lp108
(lp109
Vulturally significant in terms of entertainment
p110
aVfashionable
p111
aVhappy
p112
aVhas an influential culture
p113
aVmodern
p114
aVprestigious
p115
aVtrendy
p116
aaa(lp117
(lp118
Vonnected to the rest of the world
p119
aVeducated population
p120
aVentrepreneurial
p121
aVinnovative
p122
aVprovides easy access to capital
p123
aVskilled labor force
p124
aVtechnological expertise
p125
aVtransparent business practices
p126
aVwell-developed infrastructure
p127
aVwell-developed legal framework
p128
aaa(lp129
(lp130
Vulturally accessible
p131
aVhas a rich history
p132
aVhas great food
p133
aVmany cultural attractions
p134
aaa(lp135
(lp136
Vureaucratic
p137
aVcheap manufacturing costs
p138
aVcorrupt
p139
aVfavorable tax environment
p140
aVtransparent government practices
p141
aaa(lp142
(lp143
Vifferent
p144
aVdistinctive
p145
aVdynamic
p146
aVunique
p147
aaa(lp148
(lp149
Vleader
p150
aVeconomically influential
p151
aVpolitically influential
p152
aVstrong international alliances
p153
aVstrong military
p154
aaa(lp155
(lp156
S'a good job market'
p157
aS'affordable'
p158
aS'economically stable'
p159
aS'family friendly'
p160
aS'income equality'
p161
aS'politically stable'
p162
aS'safe'
p163
aS'well-developed public education system'
p164
aS'well-developed public health system'
p165
aaatp166
ba(lp167
g15
(g16
(dp168
g18
g19
(g20
(I0
tp169
g22
tp170
Rp171
(I1
(I1
tp172
g29
I00
(lp173
g35
atp174
bsg38
Nstp175
Rp176
ag15
(g16
(dp177
g18
g19
(g20
(I0
tp178
g22
tp179
Rp180
(I1
(I3
tp181
g29
I00
(lp182
g33
ag34
ag36
atp183
bsg38
Nstp184
Rp185
a(dp186
S'0.14.1'
p187
(dp188
S'axes'
p189
g14
sS'blocks'
p190
(lp191
(dp192
S'mgr_locs'
p193
c__builtin__
slice
p194
(I2
I3
I1
tp195
Rp196
sS'values'
p197
g59
sa(dp198
g193
g19
(g20
(I0
tp199
g22
tp200
Rp201
(I1
(I3
tp202
g49
I00
S'\x00\x00\x00\x00\x00\x00\x00\x00\x01\x00\x00\x00\x00\x00\x00\x00\x03\x00\x00\x00\x00\x00\x00\x00'
p203
tp204
bsg197
g70
sasstp205
bsb.