ccopy_reg
_reconstructor
p0
(cpandas.core.frame
DataFrame
p1
c__builtin__
object
p2
Ntp3
Rp4
(dp5
S'_metadata'
p6
(lp7
sS'_typ'
p8
S'dataframe'
p9
sS'_data'
p10
g0
(cpandas.core.internals
BlockManager
p11
g2
Ntp12
Rp13
((lp14
cpandas.core.index
_new_Index
p15
(cpandas.core.index
Index
p16
(dp17
S'data'
p18
cnumpy.core.multiarray
_reconstruct
p19
(cnumpy
ndarray
p20
(I0
tp21
S'b'
p22
tp23
Rp24
(I1
(I4
tp25
cnumpy
dtype
p26
(S'O8'
p27
I0
I1
tp28
Rp29
(I3
S'|'
p30
NNNI-1
I-1
I63
tp31
bI00
(lp32
S'subranking'
p33
aS'url'
p34
aS'weight'
p35
aS'attributes'
p36
atp37
bsS'name'
p38
Nstp39
Rp40
ag15
(cpandas.core.index
Int64Index
p41
(dp42
g18
g19
(g20
(I0
tp43
g22
tp44
Rp45
(I1
(I9
tp46
g26
(S'i8'
p47
I0
I1
tp48
Rp49
(I3
S'<'
p50
NNNI-1
I-1
I0
tp51
bI00
S'\x00\x00\x00\x00\x00\x00\x00\x00\x01\x00\x00\x00\x00\x00\x00\x00\x02\x00\x00\x00\x00\x00\x00\x00\x03\x00\x00\x00\x00\x00\x00\x00\x04\x00\x00\x00\x00\x00\x00\x00\x05\x00\x00\x00\x00\x00\x00\x00\x06\x00\x00\x00\x00\x00\x00\x00\x07\x00\x00\x00\x00\x00\x00\x00\x08\x00\x00\x00\x00\x00\x00\x00'
p52
tp53
bsg38
Nstp54
Rp55
a(lp56
g19
(g20
(I0
tp57
g22
tp58
Rp59
(I1
(I1
I9
tp60
g26
(S'f8'
p61
I0
I1
tp62
Rp63
(I3
S'<'
p64
NNNI-1
I-1
I0
tp65
bI00
S"\xecQ\xb8\x1e\x85\xeb\t@33333\xf30@\\\x8f\xc2\xf5(\xdc)@\xecQ\xb8\x1e\x85k1@\\\x8f\xc2\xf5(\\\t@{\x14\xaeG\xe1\xfa'@\x00\x00\x00\x00\x00\x00$@\xaeG\xe1z\x14\xae\x1d@\xa4p=\n\xd7\xe30@"
p66
tp67
bag19
(g20
(I0
tp68
g22
tp69
Rp70
(I1
(I3
I9
tp71
g29
I00
(lp72
VAdventure
p73
aVCitizenship
p74
aVCultural Influence
p75
aVEntrepreneurship
p76
aVHeritage
p77
aVOpen for Business
p78
aVMovers
p79
aVPower
p80
aVQuality of Life
p81
aV/news/best-countries/adventure-rankings
p82
aV/news/best-countries/citizenship-rankings
p83
aV/news/best-countries/influence-rankings
p84
aV/news/best-countries/entrepreneurship-rankings
p85
aV/news/best-countries/heritage-rankings
p86
aV/news/best-countries/open-for-business-rankings
p87
aV/news/best-countries/movers-rankings
p88
aV/news/best-countries/power-rankings
p89
aV/news/best-countries/quality-of-life-rankings
p90
a(lp91
Vfriendly
p92
aVfun
p93
aVpleasant climate
p94
aVscenic
p95
aVsexy
p96
aa(lp97
Vares about human rights
p98
aVcares about the environment
p99
aVgender equality
p100
aVprogressive
p101
aVreligious freedom
p102
aVrespects property rights
p103
aVtrustworthy
p104
aVwell-distributed political power
p105
aa(lp106
Vulturally significant in terms of entertainment
p107
aVfashionable
p108
aVhappy
p109
aVhas an influential culture
p110
aVmodern
p111
aVprestigious
p112
aVtrendy
p113
aa(lp114
Vonnected to the rest of the world
p115
aVeducated population
p116
aVentrepreneurial
p117
aVinnovative
p118
aVprovides easy access to capital
p119
aVskilled labor force
p120
aVtechnological expertise
p121
aVtransparent business practices
p122
aVwell-developed infrastructure
p123
aVwell-developed legal framework
p124
aa(lp125
Vulturally accessible
p126
aVhas a rich history
p127
aVhas great food
p128
aVmany cultural attractions
p129
aa(lp130
Vureaucratic
p131
aVcheap manufacturing costs
p132
aVcorrupt
p133
aVfavorable tax environment
p134
aVtransparent government practices
p135
aa(lp136
Vifferent
p137
aVdistinctive
p138
aVdynamic
p139
aVunique
p140
aa(lp141
Vleader
p142
aVeconomically influential
p143
aVpolitically influential
p144
aVstrong international alliances
p145
aVstrong military
p146
aa(lp147
S'a good job market'
p148
aS'affordable'
p149
aS'economically stable'
p150
aS'family friendly'
p151
aS'income equality'
p152
aS'politically stable'
p153
aS'safe'
p154
aS'well-developed public education system'
p155
aS'well-developed public health system'
p156
aatp157
ba(lp158
g15
(g16
(dp159
g18
g19
(g20
(I0
tp160
g22
tp161
Rp162
(I1
(I1
tp163
g29
I00
(lp164
g35
atp165
bsg38
Nstp166
Rp167
ag15
(g16
(dp168
g18
g19
(g20
(I0
tp169
g22
tp170
Rp171
(I1
(I3
tp172
g29
I00
(lp173
g33
ag34
ag36
atp174
bsg38
Nstp175
Rp176
a(dp177
S'0.14.1'
p178
(dp179
S'axes'
p180
g14
sS'blocks'
p181
(lp182
(dp183
S'mgr_locs'
p184
c__builtin__
slice
p185
(I2
I3
I1
tp186
Rp187
sS'values'
p188
g59
sa(dp189
g184
g19
(g20
(I0
tp190
g22
tp191
Rp192
(I1
(I3
tp193
g49
I00
S'\x00\x00\x00\x00\x00\x00\x00\x00\x01\x00\x00\x00\x00\x00\x00\x00\x03\x00\x00\x00\x00\x00\x00\x00'
p194
tp195
bsg188
g70
sasstp196
bsb.